; Function Attrs: mustprogress nofree nounwind willreturn memory(write, argmem: readwrite) uwtable
define internal { double, double } @_ZL14merc_s_inverse5PJ_XYP8PJconsts(double %0, double %1, ptr noundef readonly captures(none) %2) #4 {
  %4 = getelementptr inbounds nuw i8, ptr %2, i64 488
  %5 = load double, ptr %4, align 8, !tbaa !44
  %6 = fdiv double %1, %5
  %7 = tail call double @sinh(double noundef %6) #6, !tbaa !43
  %8 = tail call double @atan(double noundef %7) #6, !tbaa !43
  %9 = fdiv double %0, %5
  %.fca.0.insert = insertvalue { double, double } poison, double %9, 0
  %.fca.1.insert = insertvalue { double, double } %.fca.0.insert, double %8, 1
  ret { double, double } %.fca.1.insert
}